; Function Attrs: mustprogress uwtable
define noundef i32 @_ZN32pxrInternal_v0_24__pxrReserved__9TfDlcloseEPv(ptr noundef %0) local_unnamed_addr #1 {
  %2 = load i8, ptr @_ZN32pxrInternal_v0_24__pxrReserved__L8_closingE, align 1
  store i8 1, ptr @_ZN32pxrInternal_v0_24__pxrReserved__L8_closingE, align 1
  %3 = load atomic i32, ptr getelementptr inbounds nuw (i8, ptr @_ZN32pxrInternal_v0_24__pxrReserved__7TfDebug5_DataINS_30TF_DISCOVERY_TERSE__DebugCodesEE5nodesE, i64 16) seq_cst, align 16
  %4 = icmp eq i32 %3, 0
  br i1 %4, label %5, label %_ZN32pxrInternal_v0_24__pxrReserved__7TfDebug9IsEnabledINS_30TF_DISCOVERY_TERSE__DebugCodesEEEbT_.exit

5:                                                ; preds = %1
  tail call void @_ZN32pxrInternal_v0_24__pxrReserved__7TfDebug15_InitializeNodeERNS0_5_NodeEPKc(ptr noundef nonnull align 4 dereferenceable(4) getelementptr inbounds nuw (i8, ptr @_ZN32pxrInternal_v0_24__pxrReserved__7TfDebug5_DataINS_30TF_DISCOVERY_TERSE__DebugCodesEE5nodesE, i64 16), ptr noundef nonnull @.str.8)
  %6 = load atomic i32, ptr getelementptr inbounds nuw (i8, ptr @_ZN32pxrInternal_v0_24__pxrReserved__7TfDebug5_DataINS_30TF_DISCOVERY_TERSE__DebugCodesEE5nodesE, i64 16) seq_cst, align 16
  br label %_ZN32pxrInternal_v0_24__pxrReserved__7TfDebug9IsEnabledINS_30TF_DISCOVERY_TERSE__DebugCodesEEEbT_.exit

_ZN32pxrInternal_v0_24__pxrReserved__7TfDebug9IsEnabledINS_30TF_DISCOVERY_TERSE__DebugCodesEEEbT_.exit: ; preds = %1, %5
  %.0.i = phi i32 [ %6, %5 ], [ %3, %1 ]
  %7 = icmp eq i32 %.0.i, 2
  br i1 %7, label %8, label %9

8:                                                ; preds = %_ZN32pxrInternal_v0_24__pxrReserved__7TfDebug9IsEnabledINS_30TF_DISCOVERY_TERSE__DebugCodesEEEbT_.exit
  tail call void (ptr, ...) @_ZN32pxrInternal_v0_24__pxrReserved__7TfDebug6Helper3MsgEPKcz(ptr noundef nonnull @.str.3, ptr noundef %0)
  br label %9

9:                                                ; preds = %_ZN32pxrInternal_v0_24__pxrReserved__7TfDebug9IsEnabledINS_30TF_DISCOVERY_TERSE__DebugCodesEEEbT_.exit, %8
  %10 = and i8 %2, 1
  %11 = tail call noundef i32 @_ZN32pxrInternal_v0_24__pxrReserved__16ArchLibraryCloseEPv(ptr noundef %0)
  store i8 %10, ptr @_ZN32pxrInternal_v0_24__pxrReserved__L8_closingE, align 1
  ret i32 %11
}